target datalayout = "e-m:e-p270:32:32-p271:32:32-p272:64:64-i64:64-i128:128-f80:128-n8:16:32:64-S128"
target triple = "x86_64-pc-linux-gnu"

%struct.AVTextWriterContext = type { ptr, ptr, ptr, ptr }
%struct.AVTextWriter = type { ptr, i32, ptr, ptr, ptr, ptr, ptr, ptr }

; Function Attrs: nounwind uwtable
define i32 @avtextwriter_context_close(ptr noundef %0) #0 {
  %2 = alloca i32, align 4
  %3 = alloca ptr, align 8
  %4 = alloca ptr, align 8
  %5 = alloca i32, align 4
  %6 = alloca i32, align 4
  store ptr %0, ptr %3, align 8, !tbaa !107
  call void @llvm.lifetime.start.p0(i64 8, ptr %4) #10
  %7 = load ptr, ptr %3, align 8, !tbaa !107
  %8 = load ptr, ptr %7, align 8, !tbaa !29
  store ptr %8, ptr %4, align 8, !tbaa !29
  call void @llvm.lifetime.start.p0(i64 4, ptr %5) #10
  store i32 0, ptr %5, align 4, !tbaa !12
  %9 = load ptr, ptr %4, align 8, !tbaa !29
  %10 = icmp ne ptr %9, null
  br i1 %10, label %12, label %11

11:                                               ; preds = %1
  store i32 -22, ptr %2, align 4
  store i32 1, ptr %6, align 4
  br label %49

12:                                               ; preds = %1
  %13 = load ptr, ptr %4, align 8, !tbaa !29
  %14 = getelementptr inbounds nuw %struct.AVTextWriterContext, ptr %13, i32 0, i32 1
  %15 = load ptr, ptr %14, align 8, !tbaa !109
  %16 = icmp ne ptr %15, null
  br i1 %16, label %17, label %44

17:                                               ; preds = %12
  %18 = load ptr, ptr %4, align 8, !tbaa !29
  %19 = getelementptr inbounds nuw %struct.AVTextWriterContext, ptr %18, i32 0, i32 1
  %20 = load ptr, ptr %19, align 8, !tbaa !109
  %21 = getelementptr inbounds nuw %struct.AVTextWriter, ptr %20, i32 0, i32 4
  %22 = load ptr, ptr %21, align 8, !tbaa !112
  %23 = icmp ne ptr %22, null
  br i1 %23, label %24, label %32

24:                                               ; preds = %17
  %25 = load ptr, ptr %4, align 8, !tbaa !29
  %26 = getelementptr inbounds nuw %struct.AVTextWriterContext, ptr %25, i32 0, i32 1
  %27 = load ptr, ptr %26, align 8, !tbaa !109
  %28 = getelementptr inbounds nuw %struct.AVTextWriter, ptr %27, i32 0, i32 4
  %29 = load ptr, ptr %28, align 8, !tbaa !112
  %30 = load ptr, ptr %4, align 8, !tbaa !29
  %31 = call i32 %29(ptr noundef %30)
  store i32 %31, ptr %5, align 4, !tbaa !12
  br label %32

32:                                               ; preds = %24, %17
  %33 = load ptr, ptr %4, align 8, !tbaa !29
  %34 = getelementptr inbounds nuw %struct.AVTextWriterContext, ptr %33, i32 0, i32 1
  %35 = load ptr, ptr %34, align 8, !tbaa !109
  %36 = getelementptr inbounds nuw %struct.AVTextWriter, ptr %35, i32 0, i32 0
  %37 = load ptr, ptr %36, align 8, !tbaa !114
  %38 = icmp ne ptr %37, null
  br i1 %38, label %39, label %43

39:                                               ; preds = %32
  %40 = load ptr, ptr %4, align 8, !tbaa !29
  %41 = getelementptr inbounds nuw %struct.AVTextWriterContext, ptr %40, i32 0, i32 3
  %42 = load ptr, ptr %41, align 8, !tbaa !115
  call void @av_opt_free(ptr noundef %42)
  br label %43

43:                                               ; preds = %39, %32
  br label %44

44:                                               ; preds = %43, %12
  %45 = load ptr, ptr %4, align 8, !tbaa !29
  %46 = getelementptr inbounds nuw %struct.AVTextWriterContext, ptr %45, i32 0, i32 3
  call void @av_freep(ptr noundef %46)
  %47 = load ptr, ptr %3, align 8, !tbaa !107
  call void @av_freep(ptr noundef %47)
  %48 = load i32, ptr %5, align 4, !tbaa !12
  store i32 %48, ptr %2, align 4
  store i32 1, ptr %6, align 4
  br label %49

49:                                               ; preds = %44, %11
  call void @llvm.lifetime.end.p0(i64 4, ptr %5) #10
  call void @llvm.lifetime.end.p0(i64 8, ptr %4) #10
  %50 = load i32, ptr %2, align 4
  ret i32 %50
}