; Function Attrs: nounwind uwtable
define i32 @avtextwriter_context_close(ptr noundef %0) local_unnamed_addr #0 {
  %2 = load ptr, ptr %0, align 8, !tbaa !80
  %.not = icmp eq ptr %2, null
  br i1 %.not, label %19, label %3

3:                                                ; preds = %1
  %4 = getelementptr inbounds nuw i8, ptr %2, i64 8
  %5 = load ptr, ptr %4, align 8, !tbaa !81
  %.not15 = icmp eq ptr %5, null
  br i1 %.not15, label %17, label %6

6:                                                ; preds = %3
  %7 = getelementptr inbounds nuw i8, ptr %5, i64 32
  %8 = load ptr, ptr %7, align 8, !tbaa !84
  %.not16 = icmp eq ptr %8, null
  br i1 %.not16, label %11, label %9

9:                                                ; preds = %6
  %10 = tail call i32 %8(ptr noundef nonnull %2) #12
  %.pre = load ptr, ptr %4, align 8, !tbaa !81
  br label %11

11:                                               ; preds = %9, %6
  %12 = phi ptr [ %.pre, %9 ], [ %5, %6 ]
  %.1 = phi i32 [ %10, %9 ], [ 0, %6 ]
  %13 = load ptr, ptr %12, align 8, !tbaa !86
  %.not17 = icmp eq ptr %13, null
  br i1 %.not17, label %17, label %14

14:                                               ; preds = %11
  %15 = getelementptr inbounds nuw i8, ptr %2, i64 24
  %16 = load ptr, ptr %15, align 8, !tbaa !87
  tail call void @av_opt_free(ptr noundef %16) #12
  br label %17

17:                                               ; preds = %11, %14, %3
  %.0 = phi i32 [ %.1, %14 ], [ %.1, %11 ], [ 0, %3 ]
  %18 = getelementptr inbounds nuw i8, ptr %2, i64 24
  tail call void @av_freep(ptr noundef nonnull %18) #12
  tail call void @av_freep(ptr noundef nonnull %0) #12
  br label %19

19:                                               ; preds = %1, %17
  %.011 = phi i32 [ %.0, %17 ], [ -22, %1 ]
  ret i32 %.011
}